; Function Attrs: mustprogress nofree norecurse nosync nounwind willreturn memory(argmem: write) uwtable
define void @_ZN7rocksdb43GetDataCollectionUnixWriteTimeInfoForLevelsERKSt6vectorISt10unique_ptrISt13unordered_mapINSt7__cxx1112basic_stringIcSt11char_traitsIcESaIcEEESt10shared_ptrIKNS_15TablePropertiesEESt4hashIS8_ESt8equal_toIS8_ESaISt4pairIKS8_SC_EEESt14default_deleteISL_EESaISO_EEPS0_IS1_INS_31DataCollectionUnixWriteTimeInfoESM_IST_EESaISV_EE(ptr dead_on_unwind noalias writable writeonly sret(%"class.rocksdb::Status") align 8 captures(none) initializes((0, 6), (8, 16)) %0, ptr noundef nonnull readnone align 1 captures(none) %1, ptr noundef readnone captures(none) %2) local_unnamed_addr #3 personality ptr @__gxx_personality_v0 {
  store i8 3, ptr %0, align 8, !tbaa !143, !alias.scope !157
  %4 = getelementptr inbounds nuw i8, ptr %0, i64 1
  store i8 0, ptr %4, align 1, !tbaa !156, !alias.scope !157
  %5 = getelementptr inbounds nuw i8, ptr %0, i64 2
  %6 = getelementptr inbounds nuw i8, ptr %0, i64 8
  store ptr null, ptr %6, align 8, !tbaa !18, !alias.scope !157
  store i32 0, ptr %5, align 2, !alias.scope !157
  ret void
}